target datalayout = "e-m:e-p270:32:32-p271:32:32-p272:64:64-i64:64-i128:128-f80:128-n8:16:32:64-S128"
target triple = "x86_64-pc-linux-gnu"

@.str = private unnamed_addr constant [19 x i8] c"ml-dsa.prefer_seed\00", align 1
@.str.1 = private unnamed_addr constant [19 x i8] c"ml-dsa.retain_seed\00", align 1

; Function Attrs: nounwind uwtable
define internal ptr @ml_dsa_new_key(ptr noundef %0, ptr noundef %1, i32 noundef %2) #0 {
  %4 = alloca ptr, align 8
  %5 = alloca ptr, align 8
  %6 = alloca ptr, align 8
  %7 = alloca i32, align 4
  %8 = alloca ptr, align 8
  %9 = alloca i32, align 4
  %10 = alloca i32, align 4
  %11 = alloca i32, align 4
  store ptr %0, ptr %5, align 8, !tbaa !3
  store ptr %1, ptr %6, align 8, !tbaa !13
  store i32 %2, ptr %7, align 4, !tbaa !7
  call void @llvm.lifetime.start.p0(i64 8, ptr %8) #5
  call void @llvm.lifetime.start.p0(i64 4, ptr %9) #5
  call void @llvm.lifetime.start.p0(i64 4, ptr %10) #5
  %12 = call i32 @ossl_prov_is_running()
  %13 = icmp ne i32 %12, 0
  br i1 %13, label %15, label %14

14:                                               ; preds = %3
  store ptr null, ptr %4, align 8
  store i32 1, ptr %11, align 4
  br label %34

15:                                               ; preds = %3
  %16 = load ptr, ptr %5, align 8, !tbaa !3
  %17 = call ptr @ossl_prov_ctx_get0_libctx(ptr noundef %16)
  %18 = load ptr, ptr %6, align 8, !tbaa !13
  %19 = load i32, ptr %7, align 4, !tbaa !7
  %20 = call ptr @ossl_ml_dsa_key_new(ptr noundef %17, ptr noundef %18, i32 noundef %19)
  store ptr %20, ptr %8, align 8, !tbaa !9
  %21 = load ptr, ptr %8, align 8, !tbaa !9
  %22 = icmp ne ptr %21, null
  br i1 %22, label %23, label %32

23:                                               ; preds = %15
  %24 = load ptr, ptr %5, align 8, !tbaa !3
  %25 = call i32 @ossl_prov_ctx_get_bool_param(ptr noundef %24, ptr noundef @.str, i32 noundef 1)
  store i32 %25, ptr %9, align 4, !tbaa !7
  %26 = load ptr, ptr %5, align 8, !tbaa !3
  %27 = call i32 @ossl_prov_ctx_get_bool_param(ptr noundef %26, ptr noundef @.str.1, i32 noundef 1)
  store i32 %27, ptr %10, align 4, !tbaa !7
  %28 = load ptr, ptr %8, align 8, !tbaa !9
  %29 = load i32, ptr %9, align 4, !tbaa !7
  %30 = load i32, ptr %10, align 4, !tbaa !7
  %31 = call i32 @ossl_ml_dsa_set_prekey(ptr noundef %28, i32 noundef %29, i32 noundef %30, ptr noundef null, i64 noundef 0, ptr noundef null, i64 noundef 0)
  br label %32

32:                                               ; preds = %23, %15
  %33 = load ptr, ptr %8, align 8, !tbaa !9
  store ptr %33, ptr %4, align 8
  store i32 1, ptr %11, align 4
  br label %34

34:                                               ; preds = %32, %14
  call void @llvm.lifetime.end.p0(i64 4, ptr %10) #5
  call void @llvm.lifetime.end.p0(i64 4, ptr %9) #5
  call void @llvm.lifetime.end.p0(i64 8, ptr %8) #5
  %35 = load ptr, ptr %4, align 8
  ret ptr %35
}

; Function Attrs: nounwind uwtable
define internal ptr @ml_dsa_65_new_key(ptr noundef %0) #0 {
  %2 = alloca ptr, align 8
  store ptr %0, ptr %2, align 8, !tbaa !3
  %3 = load ptr, ptr %2, align 8, !tbaa !3
  %4 = call ptr @ml_dsa_new_key(ptr noundef %3, ptr noundef null, i32 noundef 1458)
  ret ptr %4
}